
cce_MPS.o:     file format elf32-bigmips


Disassembly of section .text:

00000000 <sizeofint>:
#include <stdio.h>

int sizeofint()
{
   0:	27bdfff8 	[33maddiu[0m	[34msp[0m,[34msp[0m,[35m-8[0m
   4:	ffbe0000 	[33msd[0m	[34ms8[0m,[35m0[0m([34msp[0m)
   8:	03a0f025 	[33mmove[0m	[34ms8[0m,[34msp[0m
  return sizeof(int);
   c:	24020004 	[33mli[0m	[34mv0[0m,[35m4[0m
}
  10:	03c0e825 	[33mmove[0m	[34msp[0m,[34ms8[0m
  14:	dfbe0000 	[33mld[0m	[34ms8[0m,[35m0[0m([34msp[0m)
  18:	27bd0008 	[33maddiu[0m	[34msp[0m,[34msp[0m,[35m8[0m
  1c:	03e00008 	[33mjr[0m	[34mra[0m
  20:	00000000 	[33mnop[0m

00000024 <factorial>:

int factorial(int n)
{
  24:	27bdfff0 	[33maddiu[0m	[34msp[0m,[34msp[0m,[35m-16[0m
  28:	ffbe0008 	[33msd[0m	[34ms8[0m,[35m8[0m([34msp[0m)
  2c:	03a0f025 	[33mmove[0m	[34ms8[0m,[34msp[0m
  30:	afc40010 	[33msw[0m	[34ma0[0m,[35m16[0m([34ms8[0m)
  int r = 1;
  34:	24020001 	[33mli[0m	[34mv0[0m,[35m1[0m
  38:	afc20000 	[33msw[0m	[34mv0[0m,[35m0[0m([34ms8[0m)
  while(n > 1)
  3c:	10000007 	[33mb[0m	[35m5c[0m <[32mfactorial[0m[35m+0x[0m[35m38[0m>
  40:	00000000 	[33mnop[0m
    r *= n--;
  44:	8fc20010 	[33mlw[0m	[34mv0[0m,[35m16[0m([34ms8[0m)
  48:	2443ffff 	[33maddiu[0m	[34mv1[0m,[34mv0[0m,[35m-1[0m
  4c:	afc30010 	[33msw[0m	[34mv1[0m,[35m16[0m([34ms8[0m)
  50:	8fc30000 	[33mlw[0m	[34mv1[0m,[35m0[0m([34ms8[0m)
  54:	70621002 	[33mmul[0m	[34mv0[0m,[34mv1[0m,[34mv0[0m
  58:	afc20000 	[33msw[0m	[34mv0[0m,[35m0[0m([34ms8[0m)
  while(n > 1)
  5c:	8fc20010 	[33mlw[0m	[34mv0[0m,[35m16[0m([34ms8[0m)
  60:	28420002 	[33mslti[0m	[34mv0[0m,[34mv0[0m,[35m2[0m
  64:	1040fff7 	[33mbeqz[0m	[34mv0[0m,[35m44[0m <[32mfactorial[0m[35m+0x[0m[35m20[0m>
  68:	00000000 	[33mnop[0m
  return r;
  6c:	8fc20000 	[33mlw[0m	[34mv0[0m,[35m0[0m([34ms8[0m)
}
  70:	03c0e825 	[33mmove[0m	[34msp[0m,[34ms8[0m
  74:	dfbe0008 	[33mld[0m	[34ms8[0m,[35m8[0m([34msp[0m)
  78:	27bd0010 	[33maddiu[0m	[34msp[0m,[34msp[0m,[35m16[0m
  7c:	03e00008 	[33mjr[0m	[34mra[0m
  80:	00000000 	[33mnop[0m

00000084 <main>:

int main()
{
  84:	27bdffd0 	[33maddiu[0m	[34msp[0m,[34msp[0m,[35m-48[0m
  88:	ffbf0028 	[33msd[0m	[34mra[0m,[35m40[0m([34msp[0m)
  8c:	ffbe0020 	[33msd[0m	[34ms8[0m,[35m32[0m([34msp[0m)
  90:	03a0f025 	[33mmove[0m	[34ms8[0m,[34msp[0m
  printf("%d\n", factorial(6));
  94:	24040006 	[33mli[0m	[34ma0[0m,[35m6[0m
  98:	0c000000 	[33mjal[0m	[35m0[0m <[32msizeofint[0m>
  9c:	00000000 	[33mnop[0m
  a0:	00402825 	[33mmove[0m	[34ma1[0m,[34mv0[0m
  a4:	3c020000 	[33mlui[0m	[34mv0[0m,[35m0x0[0m
  a8:	24440000 	[33maddiu[0m	[34ma0[0m,[34mv0[0m,[35m0[0m
  ac:	0c000000 	[33mjal[0m	[35m0[0m <[32msizeofint[0m>
  b0:	00000000 	[33mnop[0m
  return 0;
  b4:	00001025 	[33mmove[0m	[34mv0[0m,[34mzero[0m
}
  b8:	03c0e825 	[33mmove[0m	[34msp[0m,[34ms8[0m
  bc:	dfbf0028 	[33mld[0m	[34mra[0m,[35m40[0m([34msp[0m)
  c0:	dfbe0020 	[33mld[0m	[34ms8[0m,[35m32[0m([34msp[0m)
  c4:	27bd0030 	[33maddiu[0m	[34msp[0m,[34msp[0m,[35m48[0m
  c8:	03e00008 	[33mjr[0m	[34mra[0m
  cc:	00000000 	[33mnop[0m
