
cce_RSV.o:     file format elf64-littleriscv


Disassembly of section .text:

0000000000000000 <sizeofint>:
// #include <stdio.h>

int sizeofint()
{
   0:	ff010113          	addi	sp,sp,-16
   4:	00813423          	sd	s0,8(sp)
   8:	01010413          	addi	s0,sp,16
  return sizeof(int);
   c:	00400793          	li	a5,4
}
  10:	00078513          	mv	a0,a5
  14:	00813403          	ld	s0,8(sp)
  18:	01010113          	addi	sp,sp,16
  1c:	00008067          	ret

0000000000000020 <factorial>:

int factorial(int n)
{
  20:	fd010113          	addi	sp,sp,-48
  24:	02813423          	sd	s0,40(sp)
  28:	03010413          	addi	s0,sp,48
  2c:	00050793          	mv	a5,a0
  30:	fcf42e23          	sw	a5,-36(s0)
  int r = 1;
  34:	00100793          	li	a5,1
  38:	fef42623          	sw	a5,-20(s0)
  while(n > 1)
  3c:	01c0006f          	j	58 <.L4>

0000000000000040 <.L5>:
    r *= n--;
  40:	fdc42783          	lw	a5,-36(s0)
  44:	fff7871b          	addiw	a4,a5,-1
  48:	fce42e23          	sw	a4,-36(s0)
  4c:	fec42703          	lw	a4,-20(s0)
  50:	02f707bb          	mulw	a5,a4,a5
  54:	fef42623          	sw	a5,-20(s0)

0000000000000058 <.L4>:
  while(n > 1)
  58:	fdc42783          	lw	a5,-36(s0)
  5c:	0007871b          	sext.w	a4,a5
  60:	00100793          	li	a5,1
  64:	fce7cee3          	blt	a5,a4,40 <.L5>
  return r;
  68:	fec42783          	lw	a5,-20(s0)
}
  6c:	00078513          	mv	a0,a5
  70:	02813403          	ld	s0,40(sp)
  74:	03010113          	addi	sp,sp,48
  78:	00008067          	ret
