
cce_MPS.o:     file format elf32-bigmips


Disassembly of section .text:

00000000 <sizeofint>:
#include <stdio.h>
#define DOUBLE_PI 3.14159265358979323846

int sizeofint()
{
   0:	27bdfff8 	[33maddiu[0m	[34msp[0m,[34msp[0m,[35m-8[0m
   4:	ffbe0000 	[33msd[0m	[34ms8[0m,[35m0[0m([34msp[0m)
   8:	03a0f025 	[33mmove[0m	[34ms8[0m,[34msp[0m
  return sizeof(int);
   c:	24020004 	[33mli[0m	[34mv0[0m,[35m4[0m
}
  10:	03c0e825 	[33mmove[0m	[34msp[0m,[34ms8[0m
  14:	dfbe0000 	[33mld[0m	[34ms8[0m,[35m0[0m([34msp[0m)
  18:	27bd0008 	[33maddiu[0m	[34msp[0m,[34msp[0m,[35m8[0m
  1c:	03e00008 	[33mjr[0m	[34mra[0m
  20:	00000000 	[33mnop[0m

00000024 <factorial>:

int factorial(int n)
{
  24:	27bdfff0 	[33maddiu[0m	[34msp[0m,[34msp[0m,[35m-16[0m
  28:	ffbe0008 	[33msd[0m	[34ms8[0m,[35m8[0m([34msp[0m)
  2c:	03a0f025 	[33mmove[0m	[34ms8[0m,[34msp[0m
  30:	afc40010 	[33msw[0m	[34ma0[0m,[35m16[0m([34ms8[0m)
  int r = 1;
  34:	24020001 	[33mli[0m	[34mv0[0m,[35m1[0m
  38:	afc20000 	[33msw[0m	[34mv0[0m,[35m0[0m([34ms8[0m)
  while(n > 1)
  3c:	10000007 	[33mb[0m	[35m5c[0m <[32mfactorial[0m[35m+0x[0m[35m38[0m>
  40:	00000000 	[33mnop[0m
    r *= n--;
  44:	8fc20010 	[33mlw[0m	[34mv0[0m,[35m16[0m([34ms8[0m)
  48:	2443ffff 	[33maddiu[0m	[34mv1[0m,[34mv0[0m,[35m-1[0m
  4c:	afc30010 	[33msw[0m	[34mv1[0m,[35m16[0m([34ms8[0m)
  50:	8fc30000 	[33mlw[0m	[34mv1[0m,[35m0[0m([34ms8[0m)
  54:	70621002 	[33mmul[0m	[34mv0[0m,[34mv1[0m,[34mv0[0m
  58:	afc20000 	[33msw[0m	[34mv0[0m,[35m0[0m([34ms8[0m)
  while(n > 1)
  5c:	8fc20010 	[33mlw[0m	[34mv0[0m,[35m16[0m([34ms8[0m)
  60:	28420002 	[33mslti[0m	[34mv0[0m,[34mv0[0m,[35m2[0m
  64:	1040fff7 	[33mbeqz[0m	[34mv0[0m,[35m44[0m <[32mfactorial[0m[35m+0x[0m[35m20[0m>
  68:	00000000 	[33mnop[0m
  return r;
  6c:	8fc20000 	[33mlw[0m	[34mv0[0m,[35m0[0m([34ms8[0m)
}
  70:	03c0e825 	[33mmove[0m	[34msp[0m,[34ms8[0m
  74:	dfbe0008 	[33mld[0m	[34ms8[0m,[35m8[0m([34msp[0m)
  78:	27bd0010 	[33maddiu[0m	[34msp[0m,[34msp[0m,[35m16[0m
  7c:	03e00008 	[33mjr[0m	[34mra[0m
  80:	00000000 	[33mnop[0m

00000084 <ipow>:

double ipow(int pow, double base)
{
  84:	27bdffe8 	[33maddiu[0m	[34msp[0m,[34msp[0m,[35m-24[0m
  88:	ffbe0010 	[33msd[0m	[34ms8[0m,[35m16[0m([34msp[0m)
  8c:	03a0f025 	[33mmove[0m	[34ms8[0m,[34msp[0m
  90:	afc40018 	[33msw[0m	[34ma0[0m,[35m24[0m([34ms8[0m)
  94:	ffc50020 	[33msd[0m	[34ma1[0m,[35m32[0m([34ms8[0m)
  double res = 1, tmp = base;
  98:	d7800000 	[33mldc1[0m	[34m$f0[0m,[35m0[0m([34mgp[0m)
  9c:	f7c00000 	[33msdc1[0m	[34m$f0[0m,[35m0[0m([34ms8[0m)
  a0:	d7c00020 	[33mldc1[0m	[34m$f0[0m,[35m32[0m([34ms8[0m)
  a4:	f7c00008 	[33msdc1[0m	[34m$f0[0m,[35m8[0m([34ms8[0m)
  while(pow)
  a8:	1000000f 	[33mb[0m	[35me8[0m <[32mipow[0m[35m+0x[0m[35m64[0m>
  ac:	00000000 	[33mnop[0m
  {
    if(pow & 1)
  b0:	8fc20018 	[33mlw[0m	[34mv0[0m,[35m24[0m([34ms8[0m)
  b4:	30420001 	[33mandi[0m	[34mv0[0m,[34mv0[0m,[35m0x1[0m
  b8:	10400005 	[33mbeqz[0m	[34mv0[0m,[35md0[0m <[32mipow[0m[35m+0x[0m[35m4c[0m>
  bc:	00000000 	[33mnop[0m
      res *= tmp;
  c0:	d7c10000 	[33mldc1[0m	[34m$f1[0m,[35m0[0m([34ms8[0m)
  c4:	d7c00008 	[33mldc1[0m	[34m$f0[0m,[35m8[0m([34ms8[0m)
  c8:	46200802 	[33mmul.d[0m	[34m$f0[0m,[34m$f1[0m,[34m$f0[0m
  cc:	f7c00000 	[33msdc1[0m	[34m$f0[0m,[35m0[0m([34ms8[0m)
    tmp *= tmp;
  d0:	d7c00008 	[33mldc1[0m	[34m$f0[0m,[35m8[0m([34ms8[0m)
  d4:	46200002 	[33mmul.d[0m	[34m$f0[0m,[34m$f0[0m,[34m$f0[0m
  d8:	f7c00008 	[33msdc1[0m	[34m$f0[0m,[35m8[0m([34ms8[0m)
    pow >>= 1;
  dc:	8fc20018 	[33mlw[0m	[34mv0[0m,[35m24[0m([34ms8[0m)
  e0:	00021043 	[33msra[0m	[34mv0[0m,[34mv0[0m,[35m0x1[0m
  e4:	afc20018 	[33msw[0m	[34mv0[0m,[35m24[0m([34ms8[0m)
  while(pow)
  e8:	8fc20018 	[33mlw[0m	[34mv0[0m,[35m24[0m([34ms8[0m)
  ec:	1440fff0 	[33mbnez[0m	[34mv0[0m,[35mb0[0m <[32mipow[0m[35m+0x[0m[35m2c[0m>
  f0:	00000000 	[33mnop[0m
  }
  return res;
  f4:	d7c00000 	[33mldc1[0m	[34m$f0[0m,[35m0[0m([34ms8[0m)
}
  f8:	03c0e825 	[33mmove[0m	[34msp[0m,[34ms8[0m
  fc:	dfbe0010 	[33mld[0m	[34ms8[0m,[35m16[0m([34msp[0m)
 100:	27bd0018 	[33maddiu[0m	[34msp[0m,[34msp[0m,[35m24[0m
 104:	03e00008 	[33mjr[0m	[34mra[0m
 108:	00000000 	[33mnop[0m

0000010c <main>:

int main()
{
 10c:	27bdffd0 	[33maddiu[0m	[34msp[0m,[34msp[0m,[35m-48[0m
 110:	ffbf0028 	[33msd[0m	[34mra[0m,[35m40[0m([34msp[0m)
 114:	ffbe0020 	[33msd[0m	[34ms8[0m,[35m32[0m([34msp[0m)
 118:	03a0f025 	[33mmove[0m	[34ms8[0m,[34msp[0m
  printf("sizeof(int): %d\n", sizeofint());
 11c:	0c000000 	[33mjal[0m	[35m0[0m <[32msizeofint[0m>
 120:	00000000 	[33mnop[0m
 124:	00402825 	[33mmove[0m	[34ma1[0m,[34mv0[0m
 128:	3c020000 	[33mlui[0m	[34mv0[0m,[35m0x0[0m
 12c:	24440000 	[33maddiu[0m	[34ma0[0m,[34mv0[0m,[35m0[0m
 130:	0c000000 	[33mjal[0m	[35m0[0m <[32msizeofint[0m>
 134:	00000000 	[33mnop[0m
  printf("factorial(6): %d.\n", factorial(6));
 138:	24040006 	[33mli[0m	[34ma0[0m,[35m6[0m
 13c:	0c000000 	[33mjal[0m	[35m0[0m <[32msizeofint[0m>
 140:	00000000 	[33mnop[0m
 144:	00402825 	[33mmove[0m	[34ma1[0m,[34mv0[0m
 148:	3c020000 	[33mlui[0m	[34mv0[0m,[35m0x0[0m
 14c:	24440018 	[33maddiu[0m	[34ma0[0m,[34mv0[0m,[35m24[0m
 150:	0c000000 	[33mjal[0m	[35m0[0m <[32msizeofint[0m>
 154:	00000000 	[33mnop[0m
  printf("Pi^5: %lf\n", ipow(5, DOUBLE_PI));
 158:	d7800008 	[33mldc1[0m	[34m$f0[0m,[35m8[0m([34mgp[0m)
 15c:	44250000 	[33mdmfc1[0m	[34ma1[0m,[34m$f0[0m
 160:	24040005 	[33mli[0m	[34ma0[0m,[35m5[0m
 164:	0c000000 	[33mjal[0m	[35m0[0m <[32msizeofint[0m>
 168:	00000000 	[33mnop[0m
 16c:	44220000 	[33mdmfc1[0m	[34mv0[0m,[34m$f0[0m
 170:	00402825 	[33mmove[0m	[34ma1[0m,[34mv0[0m
 174:	3c020000 	[33mlui[0m	[34mv0[0m,[35m0x0[0m
 178:	24440030 	[33maddiu[0m	[34ma0[0m,[34mv0[0m,[35m48[0m
 17c:	0c000000 	[33mjal[0m	[35m0[0m <[32msizeofint[0m>
 180:	00000000 	[33mnop[0m
  return 0;
 184:	00001025 	[33mmove[0m	[34mv0[0m,[34mzero[0m
}
 188:	03c0e825 	[33mmove[0m	[34msp[0m,[34ms8[0m
 18c:	dfbf0028 	[33mld[0m	[34mra[0m,[35m40[0m([34msp[0m)
 190:	dfbe0020 	[33mld[0m	[34ms8[0m,[35m32[0m([34msp[0m)
 194:	27bd0030 	[33maddiu[0m	[34msp[0m,[34msp[0m,[35m48[0m
 198:	03e00008 	[33mjr[0m	[34mra[0m
 19c:	00000000 	[33mnop[0m
