
cce_AR9.o:     file format elf64-littleaarch64


Disassembly of section .text:

0000000000000000 <sizeofint>:
#include <stdio.h>

int sizeofint()
{
  return sizeof(int);
   0:	52800080 	mov	w0, #0x4                   	// #4
}
   4:	d65f03c0 	ret

0000000000000008 <factorial>:

int factorial(int n)
{
   8:	d10083ff 	sub	sp, sp, #0x20
   c:	b9000fe0 	str	w0, [sp, #12]
  int r = 1;
  10:	52800020 	mov	w0, #0x1                   	// #1
  14:	b9001fe0 	str	w0, [sp, #28]
  while(n > 1)
  18:	14000007 	b	34 <factorial+0x2c>
    r *= n--;
  1c:	b9400fe0 	ldr	w0, [sp, #12]
  20:	51000401 	sub	w1, w0, #0x1
  24:	b9000fe1 	str	w1, [sp, #12]
  28:	b9401fe1 	ldr	w1, [sp, #28]
  2c:	1b007c20 	mul	w0, w1, w0
  30:	b9001fe0 	str	w0, [sp, #28]
  while(n > 1)
  34:	b9400fe0 	ldr	w0, [sp, #12]
  38:	7100041f 	cmp	w0, #0x1
  3c:	54ffff0c 	b.gt	1c <factorial+0x14>
  return r;
  40:	b9401fe0 	ldr	w0, [sp, #28]
}
  44:	910083ff 	add	sp, sp, #0x20
  48:	d65f03c0 	ret

000000000000004c <main>:

int main()
{
  4c:	a9bf7bfd 	stp	x29, x30, [sp, #-16]!
  50:	910003fd 	mov	x29, sp
  printf("%d\n", factorial(6));
  54:	528000c0 	mov	w0, #0x6                   	// #6
  58:	94000000 	bl	8 <factorial>
  5c:	2a0003e1 	mov	w1, w0
  60:	90000000 	adrp	x0, 0 <sizeofint>
  64:	91000000 	add	x0, x0, #0x0
  68:	94000000 	bl	0 <printf>
  return 0;
  6c:	52800000 	mov	w0, #0x0                   	// #0
}
  70:	a8c17bfd 	ldp	x29, x30, [sp], #16
  74:	d65f03c0 	ret
