
cce_AR9.o:     file format elf64-littleaarch64


Disassembly of section .text:

0000000000000000 <sizeofint>:
#include <stdio.h>
#define DOUBLE_PI 3.14159265358979323846

int sizeofint()
{
  return sizeof(int);
   0:	52800080 	[33mmov[0m	[34mw0[0m, [35m#0x4                   [0m	// #4
}
   4:	d65f03c0 	[33mret[0m

0000000000000008 <factorial>:

int factorial(int n)
{
   8:	d10083ff 	[33msub[0m	[34msp[0m, [34msp[0m, [35m#0x20[0m
   c:	b9000fe0 	[33mstr[0m	[34mw0[0m, [[34msp[0m, [35m#12[0m]
  int r = 1;
  10:	52800020 	[33mmov[0m	[34mw0[0m, [35m#0x1                   [0m	// #1
  14:	b9001fe0 	[33mstr[0m	[34mw0[0m, [[34msp[0m, [35m#28[0m]
  while(n > 1)
  18:	14000007 	[33mb[0m	[35m34[0m <[32mfactorial[0m[35m+0x[0m[35m2c[0m>
    r *= n--;
  1c:	b9400fe0 	[33mldr[0m	[34mw0[0m, [[34msp[0m, [35m#12[0m]
  20:	51000401 	[33msub[0m	[34mw1[0m, [34mw0[0m, [35m#0x1[0m
  24:	b9000fe1 	[33mstr[0m	[34mw1[0m, [[34msp[0m, [35m#12[0m]
  28:	b9401fe1 	[33mldr[0m	[34mw1[0m, [[34msp[0m, [35m#28[0m]
  2c:	1b007c20 	[33mmul[0m	[34mw0[0m, [34mw1[0m, [34mw0[0m
  30:	b9001fe0 	[33mstr[0m	[34mw0[0m, [[34msp[0m, [35m#28[0m]
  while(n > 1)
  34:	b9400fe0 	[33mldr[0m	[34mw0[0m, [[34msp[0m, [35m#12[0m]
  38:	7100041f 	[33mcmp[0m	[34mw0[0m, [35m#0x1[0m
  3c:	54ffff0c 	[33mb.gt[0m	[35m1c[0m <[32mfactorial[0m[35m+0x[0m[35m14[0m>
  return r;
  40:	b9401fe0 	[33mldr[0m	[34mw0[0m, [[34msp[0m, [35m#28[0m]
}
  44:	910083ff 	[33madd[0m	[34msp[0m, [34msp[0m, [35m#0x20[0m
  48:	d65f03c0 	[33mret[0m

000000000000004c <ipow>:

double ipow(int pow, double base)
{
  4c:	d10083ff 	[33msub[0m	[34msp[0m, [34msp[0m, [35m#0x20[0m
  50:	b9000fe0 	[33mstr[0m	[34mw0[0m, [[34msp[0m, [35m#12[0m]
  54:	fd0003e0 	[33mstr[0m	[34md0[0m, [[34msp[0m]
  double res = 1, tmp = base;
  58:	1e6e1000 	[33mfmov[0m	[34md0[0m, [35m#1.000000000000000000e+00[0m
  5c:	fd000fe0 	[33mstr[0m	[34md0[0m, [[34msp[0m, [35m#24[0m]
  60:	fd4003e0 	[33mldr[0m	[34md0[0m, [[34msp[0m]
  64:	fd000be0 	[33mstr[0m	[34md0[0m, [[34msp[0m, [35m#16[0m]
  while(pow)
  68:	1400000f 	[33mb[0m	[35ma4[0m <[32mipow[0m[35m+0x[0m[35m58[0m>
  {
    if(pow & 1)
  6c:	b9400fe0 	[33mldr[0m	[34mw0[0m, [[34msp[0m, [35m#12[0m]
  70:	12000000 	[33mand[0m	[34mw0[0m, [34mw0[0m, [35m#0x1[0m
  74:	7100001f 	[33mcmp[0m	[34mw0[0m, [35m#0x0[0m
  78:	540000a0 	[33mb.eq[0m	[35m8c[0m <[32mipow[0m[35m+0x[0m[35m40[0m>  // b.none
      res *= tmp;
  7c:	fd400fe1 	[33mldr[0m	[34md1[0m, [[34msp[0m, [35m#24[0m]
  80:	fd400be0 	[33mldr[0m	[34md0[0m, [[34msp[0m, [35m#16[0m]
  84:	1e600820 	[33mfmul[0m	[34md0[0m, [34md1[0m, [34md0[0m
  88:	fd000fe0 	[33mstr[0m	[34md0[0m, [[34msp[0m, [35m#24[0m]
    tmp *= tmp;
  8c:	fd400be0 	[33mldr[0m	[34md0[0m, [[34msp[0m, [35m#16[0m]
  90:	1e600800 	[33mfmul[0m	[34md0[0m, [34md0[0m, [34md0[0m
  94:	fd000be0 	[33mstr[0m	[34md0[0m, [[34msp[0m, [35m#16[0m]
    pow >>= 1;
  98:	b9400fe0 	[33mldr[0m	[34mw0[0m, [[34msp[0m, [35m#12[0m]
  9c:	13017c00 	[33masr[0m	[34mw0[0m, [34mw0[0m, [35m#1[0m
  a0:	b9000fe0 	[33mstr[0m	[34mw0[0m, [[34msp[0m, [35m#12[0m]
  while(pow)
  a4:	b9400fe0 	[33mldr[0m	[34mw0[0m, [[34msp[0m, [35m#12[0m]
  a8:	7100001f 	[33mcmp[0m	[34mw0[0m, [35m#0x0[0m
  ac:	54fffe01 	[33mb.ne[0m	[35m6c[0m <[32mipow[0m[35m+0x[0m[35m20[0m>  // b.any
  }
  return res;
  b0:	fd400fe0 	[33mldr[0m	[34md0[0m, [[34msp[0m, [35m#24[0m]
}
  b4:	910083ff 	[33madd[0m	[34msp[0m, [34msp[0m, [35m#0x20[0m
  b8:	d65f03c0 	[33mret[0m

00000000000000bc <main>:

int main()
{
  bc:	a9bf7bfd 	[33mstp[0m	[34mx29[0m, [34mx30[0m, [[34msp[0m, [35m#-16[0m]!
  c0:	910003fd 	[33mmov[0m	[34mx29[0m, [34msp[0m
  printf("sizeof(int): %d\n", sizeofint());
  c4:	94000000 	[33mbl[0m	[35m0[0m <[32msizeofint[0m>
  c8:	2a0003e1 	[33mmov[0m	[34mw1[0m, [34mw0[0m
  cc:	90000000 	[33madrp[0m	[34mx0[0m, [35m0[0m <[32msizeofint[0m>
  d0:	91000000 	[33madd[0m	[34mx0[0m, [34mx0[0m, [35m#0x0[0m
  d4:	94000000 	[33mbl[0m	[35m0[0m <[32mprintf[0m>
  printf("factorial(6): %d.\n", factorial(6));
  d8:	528000c0 	[33mmov[0m	[34mw0[0m, [35m#0x6                   [0m	// #6
  dc:	94000000 	[33mbl[0m	[35m8[0m <[32mfactorial[0m>
  e0:	2a0003e1 	[33mmov[0m	[34mw1[0m, [34mw0[0m
  e4:	90000000 	[33madrp[0m	[34mx0[0m, [35m0[0m <[32msizeofint[0m>
  e8:	91000000 	[33madd[0m	[34mx0[0m, [34mx0[0m, [35m#0x0[0m
  ec:	94000000 	[33mbl[0m	[35m0[0m <[32mprintf[0m>
  printf("Pi^5: %lf\n", ipow(5, DOUBLE_PI));
  f0:	90000000 	[33madrp[0m	[34mx0[0m, [35m0[0m <[32msizeofint[0m>
  f4:	fd400000 	[33mldr[0m	[34md0[0m, [[34mx0[0m]
  f8:	528000a0 	[33mmov[0m	[34mw0[0m, [35m#0x5                   [0m	// #5
  fc:	94000000 	[33mbl[0m	[35m4c[0m <[32mipow[0m>
 100:	90000000 	[33madrp[0m	[34mx0[0m, [35m0[0m <[32msizeofint[0m>
 104:	91000000 	[33madd[0m	[34mx0[0m, [34mx0[0m, [35m#0x0[0m
 108:	94000000 	[33mbl[0m	[35m0[0m <[32mprintf[0m>
  return 0;
 10c:	52800000 	[33mmov[0m	[34mw0[0m, [35m#0x0                   [0m	// #0
}
 110:	a8c17bfd 	[33mldp[0m	[34mx29[0m, [34mx30[0m, [[34msp[0m], [35m#16[0m
 114:	d65f03c0 	[33mret[0m
